(dp0
Vgrade 2
p1
(lp2
(S'3-4'
p3
cnumpy.core.multiarray
scalar
p4
(cnumpy
dtype
p5
(S'f8'
p6
I0
I1
tp7
Rp8
(I3
S'<'
p9
NNNI-1
I-1
I0
tp10
bS'\xc6\x8a\x96\x8e\x1d\xf5C@'
p11
tp12
Rp13
tp14
a(S'1-4'
p15
g4
(g8
S'8\xc5\x90\xce\xbf7N@'
p16
tp17
Rp18
tp19
a(S'2-7'
p20
g4
(g8
S'\x83\xfe\xdd\x8bt\x1bT@'
p21
tp22
Rp23
tp24
a(S'2-4'
p25
g4
(g8
S't\xe8\x0f\x1b{\xe7V@'
p26
tp27
Rp28
tp29
a(S'0-7'
p30
g4
(g8
S'9\x1e\xe8\x831\xa5X@'
p31
tp32
Rp33
tp34
a(S'2-5'
p35
g4
(g8
S'\xce[#4\x04\xc8\\@'
p36
tp37
Rp38
tp39
a(S'5-7'
p40
g4
(g8
S'\xe28\xa4\xfeX\xdb]@'
p41
tp42
Rp43
tp44
a(S'1-7'
p45
g4
(g8
S'\xa78\xae\xc4:\xa6^@'
p46
tp47
Rp48
tp49
a(S'3-7'
p50
g4
(g8
S'>\xc4{Z\xadA_@'
p51
tp52
Rp53
tp54
a(S'4-7'
p55
g4
(g8
S'\x1c\x03t\x1doD_@'
p56
tp57
Rp58
tp59
a(S'0-5'
p60
g4
(g8
S'\xcf\xecP}\xe5\xffa@'
p61
tp62
Rp63
tp64
a(S'1-5'
p65
g4
(g8
S'\xd2\xe8-\xee\xf8oc@'
p66
tp67
Rp68
tp69
a(S'4-6'
p70
g4
(g8
S'E\xba\xf1\x99.\x9dd@'
p71
tp72
Rp73
tp74
a(S'7-8'
p75
g4
(g8
S'\xfa\x05?J\xf2@e@'
p76
tp77
Rp78
tp79
a(S'6-7'
p80
g4
(g8
S'S\x80\xa2\x99 \x80e@'
p81
tp82
Rp83
tp84
a(S'5-8'
p85
g4
(g8
S'\x8d\x7f\xf4L\x15\xbef@'
p86
tp87
Rp88
tp89
a(S'3-8'
p90
g4
(g8
S'\xf6i\xb8h\x91\xdef@'
p91
tp92
Rp93
tp94
a(S'7-9'
p95
g4
(g8
S'd;\x98M\xf56g@'
p96
tp97
Rp98
tp99
a(S'1-3'
p100
g4
(g8
S'\x93%\xcd\xadT_g@'
p101
tp102
Rp103
tp104
a(S'3-5'
p105
g4
(g8
S'W\xf5\xcc\x03\x81\x91g@'
p106
tp107
Rp108
tp109
a(S'4-8'
p110
g4
(g8
S'a\xc0\x9b\x1c\xee[h@'
p111
tp112
Rp113
tp114
a(S'4-9'
p115
g4
(g8
S'\xc8\xde\xe8\xa2I\xf7j@'
p116
tp117
Rp118
tp119
a(S'0-4'
p120
g4
(g8
S'\xac\xd0\x17\xae\x10jk@'
p121
tp122
Rp123
tp124
a(S'7-10'
p125
g4
(g8
S'5\x94\xea\x8a\xf7kk@'
p126
tp127
Rp128
tp129
a(S'1-8'
p130
g4
(g8
S'\xd0\x16\xf2\xf8\xf7~k@'
p131
tp132
Rp133
tp134
a(S'2-9'
p135
g4
(g8
S'~\x06\x8f\xa3\xfb>l@'
p136
tp137
Rp138
tp139
a(S'2-3'
p140
g4
(g8
S'\xe5\x05\x9f:\xfbXo@'
p141
tp142
Rp143
tp144
a(S'4-10'
p145
g4
(g8
S':\xafo<)\xb6o@'
p146
tp147
Rp148
tp149
a(S'8-9'
p150
g4
(g8
S'\xd7\x820{F\x86p@'
p151
tp152
Rp153
tp154
a(S'4-5'
p155
g4
(g8
S'\xf3\xff\x93\x12\x87\xaeq@'
p156
tp157
Rp158
tp159
a(S'2-10'
p160
g4
(g8
S'BZv\xaf\xc7%r@'
p161
tp162
Rp163
tp164
a(S'0-9'
p165
g4
(g8
S'\xca\x94S\x04{mr@'
p166
tp167
Rp168
tp169
a(S'5-6'
p170
g4
(g8
S'U\xc0\xc7\x9e\x04\x96r@'
p171
tp172
Rp173
tp174
a(S'5-9'
p175
g4
(g8
S'\xfc\x95\xb3\xddQ\xa6s@'
p176
tp177
Rp178
tp179
a(S'3-9'
p180
g4
(g8
S'r\xc6\x1c\xf5\x95\xdes@'
p181
tp182
Rp183
tp184
a(S'1-9'
p185
g4
(g8
S'u\x8d\xb9\x8a\x16Lt@'
p186
tp187
Rp188
tp189
a(S'6-8'
p190
g4
(g8
S'\x03o\x15cu\xe7t@'
p191
tp192
Rp193
tp194
a(S'3-6'
p195
g4
(g8
S'\xd2o\xc1\x1f\x00\xc5u@'
p196
tp197
Rp198
tp199
a(S'5-10'
p200
g4
(g8
S'\xe3\xc5\x02Bj\xe8u@'
p201
tp202
Rp203
tp204
a(S'6-9'
p205
g4
(g8
S'#\xb0b\xfd\x84\x0ew@'
p206
tp207
Rp208
tp209
a(S'3-10'
p210
g4
(g8
S'\x93\xcc\x87s\x83:w@'
p211
tp212
Rp213
tp214
a(S'0-10'
p215
g4
(g8
S'\x952\xed\xd9\xf7\x90w@'
p216
tp217
Rp218
tp219
a(S'7-11'
p220
g4
(g8
S'\xb7\x96\xf0\\\xd8\x9cw@'
p221
tp222
Rp223
tp224
a(S'2-8'
p225
g4
(g8
S'}\xf3R`\xa5\xbdw@'
p226
tp227
Rp228
tp229
a(S'1-10'
p230
g4
(g8
S'\xd5<X\x8d\xa4wx@'
p231
tp232
Rp233
tp234
a(S'1-6'
p235
g4
(g8
S'F\x86\x0f8\x94\xb6x@'
p236
tp237
Rp238
tp239
a(S'1-2'
p240
g4
(g8
S'\xa8g\xff\xf8\x0f\xbay@'
p241
tp242
Rp243
tp244
a(S'6-10'
p245
g4
(g8
S'\x0c\xf0\xf3\xc7M\xd9y@'
p246
tp247
Rp248
tp249
a(S'2-6'
p250
g4
(g8
S'\xcf\xcf\xf7\xba\xeejz@'
p251
tp252
Rp253
tp254
a(S'4-11'
p255
g4
(g8
S'\x85\xbfe\x86\xeenz@'
p256
tp257
Rp258
tp259
a(S'8-10'
p260
g4
(g8
S'-\x0b\xcd\x01\x07\xc4|@'
p261
tp262
Rp263
tp264
a(S'0-2'
p265
g4
(g8
S'#+dn\xca\xf7|@'
p266
tp267
Rp268
tp269
a(S'2-11'
p270
g4
(g8
S'\xc7\xf0\xb9\r\xaf\xef~@'
p271
tp272
Rp273
tp274
a(S'0-6'
p275
g4
(g8
S'\xaeB\xadL\xa8\xbb\x7f@'
p276
tp277
Rp278
tp279
a(S'0-8'
p280
g4
(g8
S'\x1d\xa5F\x99\xbc"\x80@'
p281
tp282
Rp283
tp284
a(S'5-11'
p285
g4
(g8
S'\\r\x83\xb4t\x8e\x80@'
p286
tp287
Rp288
tp289
a(S'8-11'
p290
g4
(g8
S'\xd8\x07v3\xfd\xc6\x80@'
p291
tp292
Rp293
tp294
a(S'3-11'
p295
g4
(g8
S'"\x04j8d\xdd\x81@'
p296
tp297
Rp298
tp299
a(S'9-10'
p300
g4
(g8
S'\x90\xb0!\x9d\xb0\x0f\x82@'
p301
tp302
Rp303
tp304
a(S'6-11'
p305
g4
(g8
S'aO\x92\x12nv\x82@'
p306
tp307
Rp308
tp309
a(S'0-11'
p310
g4
(g8
S'N\xbc\x1e\xc30\xba\x82@'
p311
tp312
Rp313
tp314
a(S'1-11'
p315
g4
(g8
S'0Z\x85\x07\x04\xc9\x82@'
p316
tp317
Rp318
tp319
a(S'10-11'
p320
g4
(g8
S'\xecE\xed\x00\xec\x9b\x83@'
p321
tp322
Rp323
tp324
a(S'9-11'
p325
g4
(g8
S'>\xfd\x97\xf9P\x89\x85@'
p326
tp327
Rp328
tp329
a(S'0-3'
p330
g4
(g8
S'_\xccu:\xf4\xd7\x85@'
p331
tp332
Rp333
tp334
a(S'0-1'
p335
g4
(g8
S'\xcc\x90\x83\x9fY\x1c\x8e@'
p336
tp337
Rp338
tp339
asVgrade 3
p340
(lp341
(g3
g13
tp342
a(g15
g18
tp343
a(g20
g23
tp344
a(g25
g28
tp345
a(g30
g33
tp346
a(g35
g38
tp347
a(g40
g43
tp348
a(g45
g48
tp349
a(g50
g53
tp350
a(g55
g58
tp351
a(g60
g63
tp352
a(g65
g68
tp353
a(g70
g73
tp354
a(g75
g78
tp355
a(g80
g83
tp356
a(g85
g88
tp357
a(g90
g93
tp358
a(g95
g98
tp359
a(g100
g103
tp360
a(g105
g108
tp361
a(g110
g113
tp362
a(g115
g118
tp363
a(g120
g123
tp364
a(g125
g128
tp365
a(g130
g133
tp366
a(g135
g138
tp367
a(g140
g143
tp368
a(g145
g148
tp369
a(g150
g153
tp370
a(g155
g158
tp371
a(g160
g163
tp372
a(g165
g168
tp373
a(g170
g173
tp374
a(g175
g178
tp375
a(g180
g183
tp376
a(g185
g188
tp377
a(g190
g193
tp378
a(g195
g198
tp379
a(g200
g203
tp380
a(g205
g208
tp381
a(g210
g213
tp382
a(g215
g218
tp383
a(g220
g223
tp384
a(g225
g228
tp385
a(g230
g233
tp386
a(g235
g238
tp387
a(g240
g243
tp388
a(g245
g248
tp389
a(g250
g253
tp390
a(g255
g258
tp391
a(g260
g263
tp392
a(g265
g268
tp393
a(g270
g273
tp394
a(g275
g278
tp395
a(g280
g283
tp396
a(g285
g288
tp397
a(g290
g293
tp398
a(g295
g298
tp399
a(g300
g303
tp400
a(g305
g308
tp401
a(g310
g313
tp402
a(g315
g318
tp403
a(g320
g323
tp404
a(g325
g328
tp405
a(g330
g333
tp406
a(g335
g338
tp407
asVgrade 1
p408
(lp409
(g3
g13
tp410
a(g15
g18
tp411
a(g20
g23
tp412
a(g25
g28
tp413
a(g30
g33
tp414
a(g35
g38
tp415
a(g40
g43
tp416
a(g45
g48
tp417
a(g50
g53
tp418
a(g55
g58
tp419
a(g60
g63
tp420
a(g65
g68
tp421
a(g70
g73
tp422
a(g75
g78
tp423
a(g80
g83
tp424
a(g85
g88
tp425
a(g90
g93
tp426
a(g95
g98
tp427
a(g100
g103
tp428
a(g105
g108
tp429
a(g110
g113
tp430
a(g115
g118
tp431
a(g120
g123
tp432
a(g125
g128
tp433
a(g130
g133
tp434
a(g135
g138
tp435
a(g140
g143
tp436
a(g145
g148
tp437
a(g150
g153
tp438
a(g155
g158
tp439
a(g160
g163
tp440
a(g165
g168
tp441
a(g170
g173
tp442
a(g175
g178
tp443
a(g180
g183
tp444
a(g185
g188
tp445
a(g190
g193
tp446
a(g195
g198
tp447
a(g200
g203
tp448
a(g205
g208
tp449
a(g210
g213
tp450
a(g215
g218
tp451
a(g220
g223
tp452
a(g225
g228
tp453
a(g230
g233
tp454
a(g235
g238
tp455
a(g240
g243
tp456
a(g245
g248
tp457
a(g250
g253
tp458
a(g255
g258
tp459
a(g260
g263
tp460
a(g265
g268
tp461
a(g270
g273
tp462
a(g275
g278
tp463
a(g280
g283
tp464
a(g285
g288
tp465
a(g290
g293
tp466
a(g295
g298
tp467
a(g300
g303
tp468
a(g305
g308
tp469
a(g310
g313
tp470
a(g315
g318
tp471
a(g320
g323
tp472
a(g325
g328
tp473
a(g330
g333
tp474
a(g335
g338
tp475
asVgrade 4
p476
(lp477
(g3
g13
tp478
a(g15
g18
tp479
a(g20
g23
tp480
a(g25
g28
tp481
a(g30
g33
tp482
a(g35
g38
tp483
a(g40
g43
tp484
a(g45
g48
tp485
a(g50
g53
tp486
a(g55
g58
tp487
a(g60
g63
tp488
a(g65
g68
tp489
a(g70
g73
tp490
a(g75
g78
tp491
a(g80
g83
tp492
a(g85
g88
tp493
a(g90
g93
tp494
a(g95
g98
tp495
a(g100
g103
tp496
a(g105
g108
tp497
a(g110
g113
tp498
a(g115
g118
tp499
a(g120
g123
tp500
a(g125
g128
tp501
a(g130
g133
tp502
a(g135
g138
tp503
a(g140
g143
tp504
a(g145
g148
tp505
a(g150
g153
tp506
a(g155
g158
tp507
a(g160
g163
tp508
a(g165
g168
tp509
a(g170
g173
tp510
a(g175
g178
tp511
a(g180
g183
tp512
a(g185
g188
tp513
a(g190
g193
tp514
a(g195
g198
tp515
a(g200
g203
tp516
a(g205
g208
tp517
a(g210
g213
tp518
a(g215
g218
tp519
a(g220
g223
tp520
a(g225
g228
tp521
a(g230
g233
tp522
a(g235
g238
tp523
a(g240
g243
tp524
a(g245
g248
tp525
a(g250
g253
tp526
a(g255
g258
tp527
a(g260
g263
tp528
a(g265
g268
tp529
a(g270
g273
tp530
a(g275
g278
tp531
a(g280
g283
tp532
a(g285
g288
tp533
a(g290
g293
tp534
a(g295
g298
tp535
a(g300
g303
tp536
a(g305
g308
tp537
a(g310
g313
tp538
a(g315
g318
tp539
a(g320
g323
tp540
a(g325
g328
tp541
a(g330
g333
tp542
a(g335
g338
tp543
asVgrade 5
p544
(lp545
(g3
g13
tp546
a(g15
g18
tp547
a(g20
g23
tp548
a(g25
g28
tp549
a(g30
g33
tp550
a(g35
g38
tp551
a(g40
g43
tp552
a(g45
g48
tp553
a(g50
g53
tp554
a(g55
g58
tp555
a(g60
g63
tp556
a(g65
g68
tp557
a(g70
g73
tp558
a(g75
g78
tp559
a(g80
g83
tp560
a(g85
g88
tp561
a(g90
g93
tp562
a(g95
g98
tp563
a(g100
g103
tp564
a(g105
g108
tp565
a(g110
g113
tp566
a(g115
g118
tp567
a(g120
g123
tp568
a(g125
g128
tp569
a(g130
g133
tp570
a(g135
g138
tp571
a(g140
g143
tp572
a(g145
g148
tp573
a(g150
g153
tp574
a(g155
g158
tp575
a(g160
g163
tp576
a(g165
g168
tp577
a(g170
g173
tp578
a(g175
g178
tp579
a(g180
g183
tp580
a(g185
g188
tp581
a(g190
g193
tp582
a(g195
g198
tp583
a(g200
g203
tp584
a(g205
g208
tp585
a(g210
g213
tp586
a(g215
g218
tp587
a(g220
g223
tp588
a(g225
g228
tp589
a(g230
g233
tp590
a(g235
g238
tp591
a(g240
g243
tp592
a(g245
g248
tp593
a(g250
g253
tp594
a(g255
g258
tp595
a(g260
g263
tp596
a(g265
g268
tp597
a(g270
g273
tp598
a(g275
g278
tp599
a(g280
g283
tp600
a(g285
g288
tp601
a(g290
g293
tp602
a(g295
g298
tp603
a(g300
g303
tp604
a(g305
g308
tp605
a(g310
g313
tp606
a(g315
g318
tp607
a(g320
g323
tp608
a(g325
g328
tp609
a(g330
g333
tp610
a(g335
g338
tp611
as.